; ModuleID = '15/1260.c'
source_filename = "15/1260.c"
target datalayout = "e-m:e-p270:32:32-p271:32:32-p272:64:64-i64:64-f80:128-n8:16:32:64-S128"
target triple = "x86_64-pc-linux-gnu"

@.str = private unnamed_addr constant [3 x i8] c"%d\00", align 1

; Function Attrs: noinline nounwind uwtable
define dso_local i32 @main() #0 {
  %1 = alloca i32, align 4
  %2 = alloca [100 x [100 x i32]], align 16
  %3 = alloca i32, align 4
  %4 = alloca i32, align 4
  %5 = alloca i32, align 4
  %6 = alloca i32, align 4
  %7 = alloca i32, align 4
  %8 = alloca i32, align 4
  %9 = alloca i32, align 4
  %10 = alloca i32, align 4
  %11 = alloca i32, align 4
  store i32 0, i32* %1, align 4
  %12 = call i32 (i8*, ...) @__isoc99_scanf(i8* getelementptr inbounds ([3 x i8], [3 x i8]* @.str, i64 0, i64 0), i32* %3)
  store i32 0, i32* %5, align 4
  br label %13

13:                                               ; preds = %34, %0
  %14 = load i32, i32* %5, align 4
  %15 = load i32, i32* %3, align 4
  %16 = icmp slt i32 %14, %15
  br i1 %16, label %17, label %37

17:                                               ; preds = %13
  store i32 0, i32* %6, align 4
  br label %18

18:                                               ; preds = %30, %17
  %19 = load i32, i32* %6, align 4
  %20 = load i32, i32* %3, align 4
  %21 = icmp slt i32 %19, %20
  br i1 %21, label %22, label %33

22:                                               ; preds = %18
  %23 = load i32, i32* %5, align 4
  %24 = sext i32 %23 to i64
  %25 = getelementptr inbounds [100 x [100 x i32]], [100 x [100 x i32]]* %2, i64 0, i64 %24
  %26 = load i32, i32* %6, align 4
  %27 = sext i32 %26 to i64
  %28 = getelementptr inbounds [100 x i32], [100 x i32]* %25, i64 0, i64 %27
  %29 = call i32 (i8*, ...) @__isoc99_scanf(i8* getelementptr inbounds ([3 x i8], [3 x i8]* @.str, i64 0, i64 0), i32* %28)
  br label %30

30:                                               ; preds = %22
  %31 = load i32, i32* %6, align 4
  %32 = add nsw i32 %31, 1
  store i32 %32, i32* %6, align 4
  br label %18

33:                                               ; preds = %18
  br label %34

34:                                               ; preds = %33
  %35 = load i32, i32* %5, align 4
  %36 = add nsw i32 %35, 1
  store i32 %36, i32* %5, align 4
  br label %13

37:                                               ; preds = %13
  store i32 0, i32* %4, align 4
  store i32 0, i32* %5, align 4
  br label %38

38:                                               ; preds = %68, %37
  %39 = load i32, i32* %5, align 4
  %40 = load i32, i32* %3, align 4
  %41 = icmp slt i32 %39, %40
  br i1 %41, label %42, label %71

42:                                               ; preds = %38
  store i32 0, i32* %6, align 4
  br label %43

43:                                               ; preds = %64, %42
  %44 = load i32, i32* %6, align 4
  %45 = load i32, i32* %3, align 4
  %46 = icmp slt i32 %44, %45
  br i1 %46, label %47, label %67

47:                                               ; preds = %43
  %48 = load i32, i32* %4, align 4
  %49 = icmp eq i32 %48, 0
  br i1 %49, label %50, label %63

50:                                               ; preds = %47
  %51 = load i32, i32* %5, align 4
  %52 = sext i32 %51 to i64
  %53 = getelementptr inbounds [100 x [100 x i32]], [100 x [100 x i32]]* %2, i64 0, i64 %52
  %54 = load i32, i32* %6, align 4
  %55 = sext i32 %54 to i64
  %56 = getelementptr inbounds [100 x i32], [100 x i32]* %53, i64 0, i64 %55
  %57 = load i32, i32* %56, align 4
  %58 = icmp eq i32 %57, 0
  br i1 %58, label %59, label %62

59:                                               ; preds = %50
  %60 = load i32, i32* %5, align 4
  store i32 %60, i32* %7, align 4
  %61 = load i32, i32* %6, align 4
  store i32 %61, i32* %8, align 4
  store i32 1, i32* %4, align 4
  br label %62

62:                                               ; preds = %59, %50
  br label %63

63:                                               ; preds = %62, %47
  br label %64

64:                                               ; preds = %63
  %65 = load i32, i32* %6, align 4
  %66 = add nsw i32 %65, 1
  store i32 %66, i32* %6, align 4
  br label %43

67:                                               ; preds = %43
  br label %68

68:                                               ; preds = %67
  %69 = load i32, i32* %5, align 4
  %70 = add nsw i32 %69, 1
  store i32 %70, i32* %5, align 4
  br label %38

71:                                               ; preds = %38
  store i32 0, i32* %4, align 4
  %72 = load i32, i32* %3, align 4
  %73 = sub nsw i32 %72, 1
  store i32 %73, i32* %5, align 4
  br label %74

74:                                               ; preds = %104, %71
  %75 = load i32, i32* %5, align 4
  %76 = icmp sge i32 %75, 0
  br i1 %76, label %77, label %107

77:                                               ; preds = %74
  %78 = load i32, i32* %3, align 4
  %79 = sub nsw i32 %78, 1
  store i32 %79, i32* %6, align 4
  br label %80

80:                                               ; preds = %100, %77
  %81 = load i32, i32* %6, align 4
  %82 = icmp sge i32 %81, 0
  br i1 %82, label %83, label %103

83:                                               ; preds = %80
  %84 = load i32, i32* %4, align 4
  %85 = icmp eq i32 %84, 0
  br i1 %85, label %86, label %99

86:                                               ; preds = %83
  %87 = load i32, i32* %5, align 4
  %88 = sext i32 %87 to i64
  %89 = getelementptr inbounds [100 x [100 x i32]], [100 x [100 x i32]]* %2, i64 0, i64 %88
  %90 = load i32, i32* %6, align 4
  %91 = sext i32 %90 to i64
  %92 = getelementptr inbounds [100 x i32], [100 x i32]* %89, i64 0, i64 %91
  %93 = load i32, i32* %92, align 4
  %94 = icmp eq i32 %93, 0
  br i1 %94, label %95, label %98

95:                                               ; preds = %86
  %96 = load i32, i32* %5, align 4
  store i32 %96, i32* %9, align 4
  %97 = load i32, i32* %6, align 4
  store i32 %97, i32* %10, align 4
  store i32 1, i32* %4, align 4
  br label %98

98:                                               ; preds = %95, %86
  br label %99

99:                                               ; preds = %98, %83
  br label %100

100:                                              ; preds = %99
  %101 = load i32, i32* %6, align 4
  %102 = add nsw i32 %101, -1
  store i32 %102, i32* %6, align 4
  br label %80

103:                                              ; preds = %80
  br label %104

104:                                              ; preds = %103
  %105 = load i32, i32* %5, align 4
  %106 = add nsw i32 %105, -1
  store i32 %106, i32* %5, align 4
  br label %74

107:                                              ; preds = %74
  %108 = load i32, i32* %9, align 4
  %109 = load i32, i32* %7, align 4
  %110 = sub nsw i32 %108, %109
  %111 = sub nsw i32 %110, 1
  %112 = load i32, i32* %10, align 4
  %113 = load i32, i32* %8, align 4
  %114 = sub nsw i32 %112, %113
  %115 = sub nsw i32 %114, 1
  %116 = mul nsw i32 %111, %115
  store i32 %116, i32* %11, align 4
  %117 = load i32, i32* %11, align 4
  %118 = call i32 (i8*, ...) @printf(i8* getelementptr inbounds ([3 x i8], [3 x i8]* @.str, i64 0, i64 0), i32 %117)
  ret i32 0
}

declare dso_local i32 @__isoc99_scanf(i8*, ...) #1

declare dso_local i32 @printf(i8*, ...) #1


!llvm.module.flags = !{!0}
!llvm.ident = !{!1}

!0 = !{i32 1, !"wchar_size", i32 4}
!1 = !{!"clang version 10.0.0-4ubuntu1 "}
